target datalayout = "e-m:e-p270:32:32-p271:32:32-p272:64:64-i64:64-i128:128-f80:128-n8:16:32:64-S128"
target triple = "x86_64-pc-linux-gnu"

@proto_register_pn_dcp.ett = internal global [3 x ptr] [ptr @ett_pn_dcp, ptr @ett_pn_dcp_block, ptr @ett_pn_dcp_rsi_properties_value], align 16
@.str.122 = private unnamed_addr constant [13 x i8] c"PROFINET DCP\00", align 1
@.str.123 = private unnamed_addr constant [7 x i8] c"PN-DCP\00", align 1
@.str.124 = private unnamed_addr constant [7 x i8] c"pn_dcp\00", align 1
@proto_pn_dcp = hidden global i32 0, align 4

; Function Attrs: null_pointer_is_valid sspstrong uwtable
define hidden void @proto_register_pn_dcp() #0 {
  %1 = alloca ptr, align 8
  call void @llvm.lifetime.start.p0(i64 8, ptr %1) #5
  %2 = call i32 @proto_register_protocol(ptr noundef @.str.122, ptr noundef @.str.123, ptr noundef @.str.124)
  store i32 %2, ptr @proto_pn_dcp, align 4
  %3 = load i32, ptr @proto_pn_dcp, align 4
  call void @proto_register_field_array(i32 noundef %3, ptr noundef @proto_register_pn_dcp.hf, i32 noundef 65)
  call void @proto_register_subtree_array(ptr noundef @proto_register_pn_dcp.ett, i32 noundef 3)
  %4 = load i32, ptr @proto_pn_dcp, align 4
  %5 = call ptr @expert_register_protocol(i32 noundef %4)
  store ptr %5, ptr %1, align 8
  %6 = load ptr, ptr %1, align 8
  call void @expert_register_field_array(ptr noundef %6, ptr noundef @proto_register_pn_dcp.ei, i32 noundef 3)
  call void @llvm.lifetime.end.p0(i64 8, ptr %1) #5
  ret void
}